; Function Attrs: nounwind uwtable
define void @wc_ecc_forcezero_point(ptr noundef %p) local_unnamed_addr #2 {
entry:
  %cmp.not = icmp eq ptr %p, null
  br i1 %cmp.not, label %if.end, label %if.then

if.then:                                          ; preds = %entry
  tail call void @sp_forcezero(ptr noundef nonnull %p) #19
  %y = getelementptr inbounds nuw i8, ptr %p, i64 1040
  tail call void @sp_forcezero(ptr noundef nonnull %y) #19
  %z = getelementptr inbounds nuw i8, ptr %p, i64 2080
  tail call void @sp_forcezero(ptr noundef nonnull %z) #19
  br label %if.end

if.end:                                           ; preds = %if.then, %entry
  ret void
}